target datalayout = "e-m:e-p270:32:32-p271:32:32-p272:64:64-i64:64-i128:128-f80:128-n8:16:32:64-S128"
target triple = "x86_64-pc-linux-gnu"

%"struct.opencv_test::ConvParamGenerator" = type <{ ptr, i32, [4 x i8] }>
%"class.testing::internal::linked_ptr_internal" = type { ptr }
%"class.testing::internal::ParamGenerator.90" = type { %"class.testing::internal::linked_ptr.91" }
%"class.testing::internal::linked_ptr.91" = type { ptr, %"class.testing::internal::linked_ptr_internal" }
%"class.testing::internal::ParamGenerator.92" = type { %"class.testing::internal::linked_ptr.93" }
%"class.testing::internal::linked_ptr.93" = type { ptr, %"class.testing::internal::linked_ptr_internal" }
%"class.testing::internal::ParamGenerator.48" = type { %"class.testing::internal::linked_ptr.49" }
%"class.testing::internal::linked_ptr.49" = type { ptr, %"class.testing::internal::linked_ptr_internal" }
%"class.testing::internal::CartesianProductHolder3" = type <{ %"class.testing::internal::ParamGenerator.90", %"class.testing::internal::ParamGenerator.92", %"class.testing::internal::ValueArray2", [6 x i8] }>
%"class.testing::internal::ValueArray2" = type { i8, i8 }

@_ZN11opencv_test19conv_3x3S1D1_paramsE = hidden global %"struct.opencv_test::ConvParamGenerator" zeroinitializer, align 8

; Function Attrs: mustprogress nounwind uwtable
define linkonce_odr hidden void @_ZN7testing8internal11ValueArray2IbbEC2Ebb(ptr noundef nonnull align 1 dereferenceable(2) %0, i1 noundef zeroext %1, i1 noundef zeroext %2) unnamed_addr #9 comdat align 2 {
  %4 = alloca ptr, align 8
  %5 = alloca i8, align 1
  %6 = alloca i8, align 1
  store ptr %0, ptr %4, align 8, !tbaa !657
  %7 = zext i1 %1 to i8
  store i8 %7, ptr %5, align 1, !tbaa !16
  %8 = zext i1 %2 to i8
  store i8 %8, ptr %6, align 1, !tbaa !16
  %9 = load ptr, ptr %4, align 8
  %10 = getelementptr inbounds nuw %"class.testing::internal::ValueArray2", ptr %9, i32 0, i32 0
  %11 = load i8, ptr %5, align 1, !tbaa !16, !range !77, !noundef !78
  %12 = trunc i8 %11 to i1
  %13 = zext i1 %12 to i8
  store i8 %13, ptr %10, align 1, !tbaa !661
  %14 = getelementptr inbounds nuw %"class.testing::internal::ValueArray2", ptr %9, i32 0, i32 1
  %15 = load i8, ptr %6, align 1, !tbaa !16, !range !77, !noundef !78
  %16 = trunc i8 %15 to i1
  %17 = zext i1 %16 to i8
  store i8 %17, ptr %14, align 1, !tbaa !663
  ret void
}

; Function Attrs: mustprogress uwtable
define linkonce_odr hidden void @_ZN7testing7CombineINS_8internal14ParamGeneratorIN11opencv_test11ConvParam_tEEENS2_ISt5tupleIJN2cv3dnn14dnn4_v202412237BackendENS9_6TargetEEEEENS1_11ValueArray2IbbEEEENS1_23CartesianProductHolder3IT_T0_T1_EERKSH_RKSI_RKSJ_(ptr dead_on_unwind noalias writable sret(%"class.testing::internal::CartesianProductHolder3") align 8 %0, ptr noundef nonnull align 8 dereferenceable(16) %1, ptr noundef nonnull align 8 dereferenceable(16) %2, ptr noundef nonnull align 1 dereferenceable(2) %3) #6 comdat {
  %5 = alloca ptr, align 8
  %6 = alloca ptr, align 8
  %7 = alloca ptr, align 8
  %8 = alloca ptr, align 8
  store ptr %0, ptr %5, align 8
  store ptr %1, ptr %6, align 8, !tbaa !559
  store ptr %2, ptr %7, align 8, !tbaa !561
  store ptr %3, ptr %8, align 8, !tbaa !657
  %9 = load ptr, ptr %6, align 8, !tbaa !559
  %10 = load ptr, ptr %7, align 8, !tbaa !561
  %11 = load ptr, ptr %8, align 8, !tbaa !657
  call void @_ZN7testing8internal23CartesianProductHolder3INS0_14ParamGeneratorIN11opencv_test11ConvParam_tEEENS2_ISt5tupleIJN2cv3dnn14dnn4_v202412237BackendENS9_6TargetEEEEENS0_11ValueArray2IbbEEEC2ERKS5_RKSD_RKSF_(ptr noundef nonnull align 8 dereferenceable(34) %0, ptr noundef nonnull align 8 dereferenceable(16) %9, ptr noundef nonnull align 8 dereferenceable(16) %10, ptr noundef nonnull align 1 dereferenceable(2) %11)
  ret void
}

; Function Attrs: mustprogress uwtable
define linkonce_odr hidden void @_ZN7testing6ValuesIbbEENS_8internal11ValueArray2IT_T0_EES3_S4_(ptr dead_on_unwind noalias writable sret(%"class.testing::internal::ValueArray2") align 1 %0, i1 noundef zeroext %1, i1 noundef zeroext %2) #6 comdat {
  %4 = alloca ptr, align 8
  %5 = alloca i8, align 1
  %6 = alloca i8, align 1
  store ptr %0, ptr %4, align 8
  %7 = zext i1 %1 to i8
  store i8 %7, ptr %5, align 1, !tbaa !16
  %8 = zext i1 %2 to i8
  store i8 %8, ptr %6, align 1, !tbaa !16
  %9 = load i8, ptr %5, align 1, !tbaa !16, !range !77, !noundef !78
  %10 = trunc i8 %9 to i1
  %11 = load i8, ptr %6, align 1, !tbaa !16, !range !77, !noundef !78
  %12 = trunc i8 %11 to i1
  call void @_ZN7testing8internal11ValueArray2IbbEC2Ebb(ptr noundef nonnull align 1 dereferenceable(2) %0, i1 noundef zeroext %10, i1 noundef zeroext %12)
  ret void
}

; Function Attrs: mustprogress uwtable
define internal void @_ZN11opencv_testL33gtest_Conv_3x3S1D1_EvalGenerator_Ev(ptr dead_on_unwind noalias writable sret(%"class.testing::internal::ParamGenerator.48") align 8 %0) #6 personality ptr @__gxx_personality_v0 {
  %2 = alloca ptr, align 8
  %3 = alloca %"class.testing::internal::CartesianProductHolder3", align 8
  %4 = alloca %"class.testing::internal::ParamGenerator.90", align 8
  %5 = alloca %"class.testing::internal::ParamGenerator.92", align 8
  %6 = alloca ptr, align 8
  %7 = alloca i32, align 4
  %8 = alloca %"class.testing::internal::ValueArray2", align 1
  store ptr %0, ptr %2, align 8
  call void @llvm.lifetime.start.p0(i64 40, ptr %3) #3
  call void @llvm.lifetime.start.p0(i64 16, ptr %4) #3
  call void @_ZNK11opencv_test18ConvParamGenerator3allEv(ptr dead_on_unwind writable sret(%"class.testing::internal::ParamGenerator.90") align 8 %4, ptr noundef nonnull align 8 dereferenceable(12) @_ZN11opencv_test19conv_3x3S1D1_paramsE)
  call void @llvm.lifetime.start.p0(i64 16, ptr %5) #3
  invoke void @_ZN11opencv_test21dnnBackendsAndTargetsEbbbbbbbb(ptr dead_on_unwind writable sret(%"class.testing::internal::ParamGenerator.92") align 8 %5, i1 noundef zeroext false, i1 noundef zeroext false, i1 noundef zeroext true, i1 noundef zeroext true, i1 noundef zeroext true, i1 noundef zeroext true, i1 noundef zeroext true, i1 noundef zeroext true)
          to label %9 unwind label %13

9:                                                ; preds = %1
  call void @llvm.lifetime.start.p0(i64 2, ptr %8) #3
  invoke void @_ZN7testing6ValuesIbbEENS_8internal11ValueArray2IT_T0_EES3_S4_(ptr dead_on_unwind writable sret(%"class.testing::internal::ValueArray2") align 1 %8, i1 noundef zeroext true, i1 noundef zeroext false)
          to label %10 unwind label %17

10:                                               ; preds = %9
  invoke void @_ZN7testing7CombineINS_8internal14ParamGeneratorIN11opencv_test11ConvParam_tEEENS2_ISt5tupleIJN2cv3dnn14dnn4_v202412237BackendENS9_6TargetEEEEENS1_11ValueArray2IbbEEEENS1_23CartesianProductHolder3IT_T0_T1_EERKSH_RKSI_RKSJ_(ptr dead_on_unwind writable sret(%"class.testing::internal::CartesianProductHolder3") align 8 %3, ptr noundef nonnull align 8 dereferenceable(16) %4, ptr noundef nonnull align 8 dereferenceable(16) %5, ptr noundef nonnull align 1 dereferenceable(2) %8)
          to label %11 unwind label %17

11:                                               ; preds = %10
  invoke void @_ZNK7testing8internal23CartesianProductHolder3INS0_14ParamGeneratorIN11opencv_test11ConvParam_tEEENS2_ISt5tupleIJN2cv3dnn14dnn4_v202412237BackendENS9_6TargetEEEEENS0_11ValueArray2IbbEEEcvNS2_IS6_IJT_T0_T1_EEEEIS4_SC_bEEv(ptr dead_on_unwind writable sret(%"class.testing::internal::ParamGenerator.48") align 8 %0, ptr noundef nonnull align 8 dereferenceable(34) %3)
          to label %12 unwind label %21

12:                                               ; preds = %11
  call void @_ZN7testing8internal23CartesianProductHolder3INS0_14ParamGeneratorIN11opencv_test11ConvParam_tEEENS2_ISt5tupleIJN2cv3dnn14dnn4_v202412237BackendENS9_6TargetEEEEENS0_11ValueArray2IbbEEED2Ev(ptr noundef nonnull align 8 dereferenceable(34) %3) #3
  call void @llvm.lifetime.end.p0(i64 2, ptr %8) #3
  call void @_ZN7testing8internal14ParamGeneratorISt5tupleIJN2cv3dnn14dnn4_v202412237BackendENS5_6TargetEEEED2Ev(ptr noundef nonnull align 8 dereferenceable(16) %5) #3
  call void @llvm.lifetime.end.p0(i64 16, ptr %5) #3
  call void @_ZN7testing8internal14ParamGeneratorIN11opencv_test11ConvParam_tEED2Ev(ptr noundef nonnull align 8 dereferenceable(16) %4) #3
  call void @llvm.lifetime.end.p0(i64 16, ptr %4) #3
  call void @llvm.lifetime.end.p0(i64 40, ptr %3) #3
  ret void

13:                                               ; preds = %1
  %14 = landingpad { ptr, i32 }
          cleanup
  %15 = extractvalue { ptr, i32 } %14, 0
  store ptr %15, ptr %6, align 8
  %16 = extractvalue { ptr, i32 } %14, 1
  store i32 %16, ptr %7, align 4
  br label %26

17:                                               ; preds = %10, %9
  %18 = landingpad { ptr, i32 }
          cleanup
  %19 = extractvalue { ptr, i32 } %18, 0
  store ptr %19, ptr %6, align 8
  %20 = extractvalue { ptr, i32 } %18, 1
  store i32 %20, ptr %7, align 4
  br label %25

21:                                               ; preds = %11
  %22 = landingpad { ptr, i32 }
          cleanup
  %23 = extractvalue { ptr, i32 } %22, 0
  store ptr %23, ptr %6, align 8
  %24 = extractvalue { ptr, i32 } %22, 1
  store i32 %24, ptr %7, align 4
  call void @_ZN7testing8internal23CartesianProductHolder3INS0_14ParamGeneratorIN11opencv_test11ConvParam_tEEENS2_ISt5tupleIJN2cv3dnn14dnn4_v202412237BackendENS9_6TargetEEEEENS0_11ValueArray2IbbEEED2Ev(ptr noundef nonnull align 8 dereferenceable(34) %3) #3
  br label %25

25:                                               ; preds = %21, %17
  call void @llvm.lifetime.end.p0(i64 2, ptr %8) #3
  call void @_ZN7testing8internal14ParamGeneratorISt5tupleIJN2cv3dnn14dnn4_v202412237BackendENS5_6TargetEEEED2Ev(ptr noundef nonnull align 8 dereferenceable(16) %5) #3
  br label %26

26:                                               ; preds = %25, %13
  call void @llvm.lifetime.end.p0(i64 16, ptr %5) #3
  call void @_ZN7testing8internal14ParamGeneratorIN11opencv_test11ConvParam_tEED2Ev(ptr noundef nonnull align 8 dereferenceable(16) %4) #3
  call void @llvm.lifetime.end.p0(i64 16, ptr %4) #3
  call void @llvm.lifetime.end.p0(i64 40, ptr %3) #3
  br label %27

27:                                               ; preds = %26
  %28 = load ptr, ptr %6, align 8
  %29 = load i32, ptr %7, align 4
  %30 = insertvalue { ptr, i32 } poison, ptr %28, 0
  %31 = insertvalue { ptr, i32 } %30, i32 %29, 1
  resume { ptr, i32 } %31
}