; Function Attrs: mustprogress uwtable
define internal void @_ZN11opencv_testL33gtest_Conv_3x3S1D1_EvalGenerator_Ev(ptr dead_on_unwind noalias writable sret(%"class.testing::internal::ParamGenerator.48") align 8 %0) #4 personality ptr @__gxx_personality_v0 {
  %2 = alloca %"class.testing::internal::CartesianProductHolder3", align 8
  %3 = alloca %"class.testing::internal::ParamGenerator.90", align 8
  %4 = alloca %"class.testing::internal::ParamGenerator.92", align 8
  %5 = alloca %"class.testing::internal::ValueArray2", align 1
  call void @llvm.lifetime.start.p0(i64 40, ptr nonnull %2) #28
  call void @llvm.lifetime.start.p0(i64 16, ptr nonnull %3) #28
  call void @_ZNK11opencv_test18ConvParamGenerator3allEv(ptr dead_on_unwind nonnull writable sret(%"class.testing::internal::ParamGenerator.90") align 8 %3, ptr noundef nonnull align 8 dereferenceable(12) @_ZN11opencv_test19conv_3x3S1D1_paramsE)
  call void @llvm.lifetime.start.p0(i64 16, ptr nonnull %4) #28
  invoke void @_ZN11opencv_test21dnnBackendsAndTargetsEbbbbbbbb(ptr dead_on_unwind nonnull writable sret(%"class.testing::internal::ParamGenerator.92") align 8 %4, i1 noundef zeroext false, i1 noundef zeroext false, i1 noundef zeroext true, i1 noundef zeroext true, i1 noundef zeroext true, i1 noundef zeroext true, i1 noundef zeroext true, i1 noundef zeroext true)
          to label %6 unwind label %47

6:                                                ; preds = %1
  call void @llvm.lifetime.start.p0(i64 2, ptr nonnull %5) #28
  store i8 1, ptr %5, align 1, !tbaa !197, !alias.scope !199
  %7 = getelementptr inbounds nuw i8, ptr %5, i64 1
  store i8 0, ptr %7, align 1, !tbaa !202, !alias.scope !199
  invoke void @_ZN7testing8internal23CartesianProductHolder3INS0_14ParamGeneratorIN11opencv_test11ConvParam_tEEENS2_ISt5tupleIJN2cv3dnn14dnn4_v202412237BackendENS9_6TargetEEEEENS0_11ValueArray2IbbEEEC2ERKS5_RKSD_RKSF_(ptr noundef nonnull align 8 dereferenceable(34) %2, ptr noundef nonnull align 8 dereferenceable(16) %3, ptr noundef nonnull align 8 dereferenceable(16) %4, ptr noundef nonnull align 1 dereferenceable(2) %5)
          to label %_ZN7testing7CombineINS_8internal14ParamGeneratorIN11opencv_test11ConvParam_tEEENS2_ISt5tupleIJN2cv3dnn14dnn4_v202412237BackendENS9_6TargetEEEEENS1_11ValueArray2IbbEEEENS1_23CartesianProductHolder3IT_T0_T1_EERKSH_RKSI_RKSJ_.exit unwind label %49

_ZN7testing7CombineINS_8internal14ParamGeneratorIN11opencv_test11ConvParam_tEEENS2_ISt5tupleIJN2cv3dnn14dnn4_v202412237BackendENS9_6TargetEEEEENS1_11ValueArray2IbbEEEENS1_23CartesianProductHolder3IT_T0_T1_EERKSH_RKSI_RKSJ_.exit: ; preds = %6
  invoke void @_ZNK7testing8internal23CartesianProductHolder3INS0_14ParamGeneratorIN11opencv_test11ConvParam_tEEENS2_ISt5tupleIJN2cv3dnn14dnn4_v202412237BackendENS9_6TargetEEEEENS0_11ValueArray2IbbEEEcvNS2_IS6_IJT_T0_T1_EEEEIS4_SC_bEEv(ptr dead_on_unwind writable sret(%"class.testing::internal::ParamGenerator.48") align 8 %0, ptr noundef nonnull align 8 dereferenceable(34) %2)
          to label %8 unwind label %51

8:                                                ; preds = %_ZN7testing7CombineINS_8internal14ParamGeneratorIN11opencv_test11ConvParam_tEEENS2_ISt5tupleIJN2cv3dnn14dnn4_v202412237BackendENS9_6TargetEEEEENS1_11ValueArray2IbbEEEENS1_23CartesianProductHolder3IT_T0_T1_EERKSH_RKSI_RKSJ_.exit
  call void @_ZN7testing8internal23CartesianProductHolder3INS0_14ParamGeneratorIN11opencv_test11ConvParam_tEEENS2_ISt5tupleIJN2cv3dnn14dnn4_v202412237BackendENS9_6TargetEEEEENS0_11ValueArray2IbbEEED2Ev(ptr noundef nonnull align 8 dereferenceable(34) %2) #28
  call void @llvm.lifetime.end.p0(i64 2, ptr nonnull %5) #28
  %9 = getelementptr inbounds nuw i8, ptr %4, i64 8
  invoke void @_ZN7testing8internal9MutexBase4LockEv(ptr noundef nonnull align 8 dereferenceable(56) @_ZN7testing8internal18g_linked_ptr_mutexE)
          to label %.noexc.i.i unwind label %25

.noexc.i.i:                                       ; preds = %8
  %10 = load ptr, ptr %9, align 8, !tbaa !177
  %11 = icmp eq ptr %10, %9
  br i1 %11, label %14, label %.preheader.i.i.i.i

.preheader.i.i.i.i:                               ; preds = %.noexc.i.i, %.preheader.i.i.i.i
  %.0.i.i.i.i = phi ptr [ %12, %.preheader.i.i.i.i ], [ %10, %.noexc.i.i ]
  %12 = load ptr, ptr %.0.i.i.i.i, align 8, !tbaa !177
  %.not.i.i.i.i = icmp eq ptr %12, %9
  br i1 %.not.i.i.i.i, label %13, label %.preheader.i.i.i.i, !llvm.loop !180

13:                                               ; preds = %.preheader.i.i.i.i
  store ptr %10, ptr %.0.i.i.i.i, align 8, !tbaa !177
  br label %14

14:                                               ; preds = %13, %.noexc.i.i
  invoke void @_ZN7testing8internal9MutexBase6UnlockEv(ptr noundef nonnull align 8 dereferenceable(56) @_ZN7testing8internal18g_linked_ptr_mutexE)
          to label %_ZN7testing8internal19linked_ptr_internal6departEv.exit.i.i.i unwind label %15

15:                                               ; preds = %14
  %16 = landingpad { ptr, i32 }
          catch ptr null
  %17 = extractvalue { ptr, i32 } %16, 0
  call void @__clang_call_terminate(ptr %17) #31
  unreachable

_ZN7testing8internal19linked_ptr_internal6departEv.exit.i.i.i: ; preds = %14
  br i1 %11, label %18, label %_ZN7testing8internal14ParamGeneratorISt5tupleIJN2cv3dnn14dnn4_v202412237BackendENS5_6TargetEEEED2Ev.exit

18:                                               ; preds = %_ZN7testing8internal19linked_ptr_internal6departEv.exit.i.i.i
  %19 = load ptr, ptr %4, align 8, !tbaa !181
  %20 = icmp eq ptr %19, null
  br i1 %20, label %_ZN7testing8internal14ParamGeneratorISt5tupleIJN2cv3dnn14dnn4_v202412237BackendENS5_6TargetEEEED2Ev.exit, label %21

21:                                               ; preds = %18
  %22 = load ptr, ptr %19, align 8, !tbaa !19
  %23 = getelementptr inbounds nuw i8, ptr %22, i64 8
  %24 = load ptr, ptr %23, align 8
  call void %24(ptr noundef nonnull align 8 dereferenceable(8) %19) #28
  br label %_ZN7testing8internal14ParamGeneratorISt5tupleIJN2cv3dnn14dnn4_v202412237BackendENS5_6TargetEEEED2Ev.exit

25:                                               ; preds = %8
  %26 = landingpad { ptr, i32 }
          catch ptr null
  %27 = extractvalue { ptr, i32 } %26, 0
  call void @__clang_call_terminate(ptr %27) #31
  unreachable

_ZN7testing8internal14ParamGeneratorISt5tupleIJN2cv3dnn14dnn4_v202412237BackendENS5_6TargetEEEED2Ev.exit: ; preds = %_ZN7testing8internal19linked_ptr_internal6departEv.exit.i.i.i, %18, %21
  call void @llvm.lifetime.end.p0(i64 16, ptr nonnull %4) #28
  %28 = getelementptr inbounds nuw i8, ptr %3, i64 8
  invoke void @_ZN7testing8internal9MutexBase4LockEv(ptr noundef nonnull align 8 dereferenceable(56) @_ZN7testing8internal18g_linked_ptr_mutexE)
          to label %.noexc.i.i5 unwind label %44

.noexc.i.i5:                                      ; preds = %_ZN7testing8internal14ParamGeneratorISt5tupleIJN2cv3dnn14dnn4_v202412237BackendENS5_6TargetEEEED2Ev.exit
  %29 = load ptr, ptr %28, align 8, !tbaa !177
  %30 = icmp eq ptr %29, %28
  br i1 %30, label %33, label %.preheader.i.i.i.i6

.preheader.i.i.i.i6:                              ; preds = %.noexc.i.i5, %.preheader.i.i.i.i6
  %.0.i.i.i.i7 = phi ptr [ %31, %.preheader.i.i.i.i6 ], [ %29, %.noexc.i.i5 ]
  %31 = load ptr, ptr %.0.i.i.i.i7, align 8, !tbaa !177
  %.not.i.i.i.i8 = icmp eq ptr %31, %28
  br i1 %.not.i.i.i.i8, label %32, label %.preheader.i.i.i.i6, !llvm.loop !180

32:                                               ; preds = %.preheader.i.i.i.i6
  store ptr %29, ptr %.0.i.i.i.i7, align 8, !tbaa !177
  br label %33

33:                                               ; preds = %32, %.noexc.i.i5
  invoke void @_ZN7testing8internal9MutexBase6UnlockEv(ptr noundef nonnull align 8 dereferenceable(56) @_ZN7testing8internal18g_linked_ptr_mutexE)
          to label %_ZN7testing8internal19linked_ptr_internal6departEv.exit.i.i.i9 unwind label %34

34:                                               ; preds = %33
  %35 = landingpad { ptr, i32 }
          catch ptr null
  %36 = extractvalue { ptr, i32 } %35, 0
  call void @__clang_call_terminate(ptr %36) #31
  unreachable

_ZN7testing8internal19linked_ptr_internal6departEv.exit.i.i.i9: ; preds = %33
  br i1 %30, label %37, label %_ZN7testing8internal14ParamGeneratorIN11opencv_test11ConvParam_tEED2Ev.exit

37:                                               ; preds = %_ZN7testing8internal19linked_ptr_internal6departEv.exit.i.i.i9
  %38 = load ptr, ptr %3, align 8, !tbaa !184
  %39 = icmp eq ptr %38, null
  br i1 %39, label %_ZN7testing8internal14ParamGeneratorIN11opencv_test11ConvParam_tEED2Ev.exit, label %40

40:                                               ; preds = %37
  %41 = load ptr, ptr %38, align 8, !tbaa !19
  %42 = getelementptr inbounds nuw i8, ptr %41, i64 8
  %43 = load ptr, ptr %42, align 8
  call void %43(ptr noundef nonnull align 8 dereferenceable(8) %38) #28
  br label %_ZN7testing8internal14ParamGeneratorIN11opencv_test11ConvParam_tEED2Ev.exit

44:                                               ; preds = %_ZN7testing8internal14ParamGeneratorISt5tupleIJN2cv3dnn14dnn4_v202412237BackendENS5_6TargetEEEED2Ev.exit
  %45 = landingpad { ptr, i32 }
          catch ptr null
  %46 = extractvalue { ptr, i32 } %45, 0
  call void @__clang_call_terminate(ptr %46) #31
  unreachable

_ZN7testing8internal14ParamGeneratorIN11opencv_test11ConvParam_tEED2Ev.exit: ; preds = %_ZN7testing8internal19linked_ptr_internal6departEv.exit.i.i.i9, %37, %40
  call void @llvm.lifetime.end.p0(i64 16, ptr nonnull %3) #28
  call void @llvm.lifetime.end.p0(i64 40, ptr nonnull %2) #28
  ret void

47:                                               ; preds = %1
  %48 = landingpad { ptr, i32 }
          cleanup
  br label %54

49:                                               ; preds = %6
  %50 = landingpad { ptr, i32 }
          cleanup
  br label %53

51:                                               ; preds = %_ZN7testing7CombineINS_8internal14ParamGeneratorIN11opencv_test11ConvParam_tEEENS2_ISt5tupleIJN2cv3dnn14dnn4_v202412237BackendENS9_6TargetEEEEENS1_11ValueArray2IbbEEEENS1_23CartesianProductHolder3IT_T0_T1_EERKSH_RKSI_RKSJ_.exit
  %52 = landingpad { ptr, i32 }
          cleanup
  call void @_ZN7testing8internal23CartesianProductHolder3INS0_14ParamGeneratorIN11opencv_test11ConvParam_tEEENS2_ISt5tupleIJN2cv3dnn14dnn4_v202412237BackendENS9_6TargetEEEEENS0_11ValueArray2IbbEEED2Ev(ptr noundef nonnull align 8 dereferenceable(34) %2) #28
  br label %53

53:                                               ; preds = %51, %49
  %.pn = phi { ptr, i32 } [ %52, %51 ], [ %50, %49 ]
  call void @llvm.lifetime.end.p0(i64 2, ptr nonnull %5) #28
  call void @_ZN7testing8internal14ParamGeneratorISt5tupleIJN2cv3dnn14dnn4_v202412237BackendENS5_6TargetEEEED2Ev(ptr noundef nonnull align 8 dereferenceable(16) %4) #28
  br label %54

54:                                               ; preds = %53, %47
  %.pn.pn = phi { ptr, i32 } [ %.pn, %53 ], [ %48, %47 ]
  call void @llvm.lifetime.end.p0(i64 16, ptr nonnull %4) #28
  call void @_ZN7testing8internal14ParamGeneratorIN11opencv_test11ConvParam_tEED2Ev(ptr noundef nonnull align 8 dereferenceable(16) %3) #28
  call void @llvm.lifetime.end.p0(i64 16, ptr nonnull %3) #28
  call void @llvm.lifetime.end.p0(i64 40, ptr nonnull %2) #28
  resume { ptr, i32 } %.pn.pn
}